; Function Attrs: mustprogress nounwind uwtable
define hidden void @_ZN19JfrPeriodicEventSet17requestThreadDumpEv() local_unnamed_addr #2 align 2 {
  %1 = alloca %class.EventThreadDump, align 8
  %2 = tail call align 8 ptr @llvm.threadlocal.address.p0(ptr align 8 @_ZN6Thread12_thr_currentE)
  %3 = load ptr, ptr %2, align 8
  %4 = getelementptr inbounds i8, ptr %3, i64 800
  %5 = load ptr, ptr %4, align 8
  %6 = getelementptr inbounds i8, ptr %5, i64 24
  %7 = load ptr, ptr %6, align 8
  %8 = getelementptr inbounds i8, ptr %5, i64 32
  %9 = load ptr, ptr %8, align 8
  %10 = getelementptr inbounds i8, ptr %5, i64 40
  %11 = load ptr, ptr %10, align 8
  %12 = getelementptr inbounds i8, ptr %5, i64 8
  %13 = load i64, ptr %12, align 8
  call void @llvm.memset.p0.i64(ptr noundef nonnull align 8 dereferenceable(19) %1, i8 0, i64 19, i1 false)
  %14 = load i8, ptr getelementptr inbounds (i8, ptr @_ZN15JfrEventSetting19_jvm_event_settingsE, i64 2897), align 1
  %15 = icmp eq i8 %14, 0
  br i1 %15, label %_ZN15EventThreadDumpC2E14EventStartTime.exit, label %16

16:                                               ; preds = %0
  %17 = tail call noundef i64 @_ZN33FastUnorderedElapsedCounterSource3nowEv() #13
  store i64 %17, ptr %1, align 8
  br label %_ZN15EventThreadDumpC2E14EventStartTime.exit

_ZN15EventThreadDumpC2E14EventStartTime.exit:     ; preds = %0, %16
  %18 = tail call noundef ptr @_ZN12JfrDcmdEvent11thread_dumpEv() #13
  %19 = getelementptr inbounds i8, ptr %1, i64 24
  store ptr %18, ptr %19, align 8
  call void @_ZN8JfrEventI15EventThreadDumpE6commitEv(ptr noundef nonnull align 8 dereferenceable(19) %1)
  %20 = load ptr, ptr %7, align 8
  %.not.i.i.i.i = icmp eq ptr %20, null
  br i1 %.not.i.i.i.i, label %22, label %21

21:                                               ; preds = %_ZN15EventThreadDumpC2E14EventStartTime.exit
  call void @_ZN5Arena17set_size_in_bytesEm(ptr noundef nonnull align 8 dereferenceable(48) %5, i64 noundef %13) #13
  call void @_ZN5Chunk9next_chopEPS_(ptr noundef nonnull %7) #13
  br label %22

22:                                               ; preds = %21, %_ZN15EventThreadDumpC2E14EventStartTime.exit
  %23 = load ptr, ptr %8, align 8
  %.not8.i.i.i.i = icmp eq ptr %23, %9
  br i1 %.not8.i.i.i.i, label %_ZN12ResourceMarkD2Ev.exit, label %24

24:                                               ; preds = %22
  store ptr %7, ptr %6, align 8
  store ptr %9, ptr %8, align 8
  store ptr %11, ptr %10, align 8
  br label %_ZN12ResourceMarkD2Ev.exit

_ZN12ResourceMarkD2Ev.exit:                       ; preds = %22, %24
  ret void
}